(lp0
(lp1
I-1000
aI-1000
aI-1000
aF-8.675926257128951
aF-8.424221760309559
aF-2.771690654974272
aF-8.908389295603138
aI-1000
aI-1000
aF-2.421931008924838
aa(lp2
I-1000
aI-1000
aI-1000
aI-1000
aI-1000
aI-1000
aI-1000
aI-1000
aI-1000
aI-1000
aa(lp3
F-12.777590604363729
aF-10.822442538249797
aF-5.780532880840319
aF-3.9521618049536835
aF-2.5379805040247962
aF-3.1864409358423877
aF-2.596381957617736
aF-17.33847042418049
aF-13.078120670842745
aF-3.50661247406594
aa(lp4
I-1000
aI-1000
aI-1000
aI-1000
aI-1000
aI-1000
aI-1000
aI-1000
aI-1000
aF-6.116591268809595
aa.